; ModuleID = '24/310.c'
source_filename = "24/310.c"
target datalayout = "e-m:e-p270:32:32-p271:32:32-p272:64:64-i64:64-f80:128-n8:16:32:64-S128"
target triple = "x86_64-pc-linux-gnu"

@.str = private unnamed_addr constant [3 x i8] c"%s\00", align 1
@.str.1 = private unnamed_addr constant [4 x i8] c"%s\0A\00", align 1

; Function Attrs: noinline nounwind uwtable
define dso_local void @main() #0 {
  %1 = alloca [50 x [50 x i8]], align 16
  %2 = alloca [50 x i32], align 16
  %3 = alloca i32, align 4
  %4 = alloca i32, align 4
  %5 = alloca i32, align 4
  %6 = alloca i32, align 4
  %7 = alloca [50 x i32], align 16
  %8 = alloca i32, align 4
  store i32 0, i32* %8, align 4
  br label %9

9:                                                ; preds = %16, %0
  %10 = load i32, i32* %8, align 4
  %11 = sext i32 %10 to i64
  %12 = getelementptr inbounds [50 x [50 x i8]], [50 x [50 x i8]]* %1, i64 0, i64 %11
  %13 = getelementptr inbounds [50 x i8], [50 x i8]* %12, i64 0, i64 0
  %14 = call i32 (i8*, ...) @__isoc99_scanf(i8* getelementptr inbounds ([3 x i8], [3 x i8]* @.str, i64 0, i64 0), i8* %13)
  %15 = icmp ne i32 %14, -1
  br i1 %15, label %16, label %19

16:                                               ; preds = %9
  %17 = load i32, i32* %8, align 4
  %18 = add nsw i32 %17, 1
  store i32 %18, i32* %8, align 4
  br label %9

19:                                               ; preds = %9
  store i32 0, i32* %4, align 4
  br label %20

20:                                               ; preds = %41, %19
  %21 = load i32, i32* %4, align 4
  %22 = load i32, i32* %8, align 4
  %23 = icmp sle i32 %21, %22
  br i1 %23, label %24, label %44

24:                                               ; preds = %20
  %25 = load i32, i32* %4, align 4
  %26 = sext i32 %25 to i64
  %27 = getelementptr inbounds [50 x [50 x i8]], [50 x [50 x i8]]* %1, i64 0, i64 %26
  %28 = getelementptr inbounds [50 x i8], [50 x i8]* %27, i64 0, i64 0
  %29 = call i64 @strlen(i8* %28) #3
  %30 = trunc i64 %29 to i32
  %31 = load i32, i32* %4, align 4
  %32 = sext i32 %31 to i64
  %33 = getelementptr inbounds [50 x i32], [50 x i32]* %2, i64 0, i64 %32
  store i32 %30, i32* %33, align 4
  %34 = load i32, i32* %4, align 4
  %35 = sext i32 %34 to i64
  %36 = getelementptr inbounds [50 x i32], [50 x i32]* %2, i64 0, i64 %35
  %37 = load i32, i32* %36, align 4
  %38 = load i32, i32* %4, align 4
  %39 = sext i32 %38 to i64
  %40 = getelementptr inbounds [50 x i32], [50 x i32]* %7, i64 0, i64 %39
  store i32 %37, i32* %40, align 4
  br label %41

41:                                               ; preds = %24
  %42 = load i32, i32* %4, align 4
  %43 = add nsw i32 %42, 1
  store i32 %43, i32* %4, align 4
  br label %20

44:                                               ; preds = %20
  store i32 0, i32* %4, align 4
  br label %45

45:                                               ; preds = %87, %44
  %46 = load i32, i32* %4, align 4
  %47 = load i32, i32* %8, align 4
  %48 = icmp sle i32 %46, %47
  br i1 %48, label %49, label %90

49:                                               ; preds = %45
  %50 = load i32, i32* %4, align 4
  %51 = add nsw i32 %50, 1
  store i32 %51, i32* %6, align 4
  br label %52

52:                                               ; preds = %83, %49
  %53 = load i32, i32* %6, align 4
  %54 = load i32, i32* %8, align 4
  %55 = icmp sle i32 %53, %54
  br i1 %55, label %56, label %86

56:                                               ; preds = %52
  %57 = load i32, i32* %4, align 4
  %58 = sext i32 %57 to i64
  %59 = getelementptr inbounds [50 x i32], [50 x i32]* %7, i64 0, i64 %58
  %60 = load i32, i32* %59, align 4
  %61 = load i32, i32* %6, align 4
  %62 = sext i32 %61 to i64
  %63 = getelementptr inbounds [50 x i32], [50 x i32]* %7, i64 0, i64 %62
  %64 = load i32, i32* %63, align 4
  %65 = icmp slt i32 %60, %64
  br i1 %65, label %66, label %82

66:                                               ; preds = %56
  %67 = load i32, i32* %4, align 4
  %68 = sext i32 %67 to i64
  %69 = getelementptr inbounds [50 x i32], [50 x i32]* %7, i64 0, i64 %68
  %70 = load i32, i32* %69, align 4
  store i32 %70, i32* %5, align 4
  %71 = load i32, i32* %6, align 4
  %72 = sext i32 %71 to i64
  %73 = getelementptr inbounds [50 x i32], [50 x i32]* %7, i64 0, i64 %72
  %74 = load i32, i32* %73, align 4
  %75 = load i32, i32* %4, align 4
  %76 = sext i32 %75 to i64
  %77 = getelementptr inbounds [50 x i32], [50 x i32]* %7, i64 0, i64 %76
  store i32 %74, i32* %77, align 4
  %78 = load i32, i32* %5, align 4
  %79 = load i32, i32* %6, align 4
  %80 = sext i32 %79 to i64
  %81 = getelementptr inbounds [50 x i32], [50 x i32]* %7, i64 0, i64 %80
  store i32 %78, i32* %81, align 4
  br label %82

82:                                               ; preds = %66, %56
  br label %83

83:                                               ; preds = %82
  %84 = load i32, i32* %6, align 4
  %85 = add nsw i32 %84, 1
  store i32 %85, i32* %6, align 4
  br label %52

86:                                               ; preds = %52
  br label %87

87:                                               ; preds = %86
  %88 = load i32, i32* %4, align 4
  %89 = add nsw i32 %88, 1
  store i32 %89, i32* %4, align 4
  br label %45

90:                                               ; preds = %45
  %91 = load i32, i32* %8, align 4
  %92 = sext i32 %91 to i64
  %93 = getelementptr inbounds [50 x i32], [50 x i32]* %7, i64 0, i64 %92
  %94 = load i32, i32* %93, align 4
  %95 = icmp eq i32 %94, 0
  br i1 %95, label %96, label %105

96:                                               ; preds = %90
  %97 = load i32, i32* %8, align 4
  %98 = sub nsw i32 %97, 1
  %99 = sext i32 %98 to i64
  %100 = getelementptr inbounds [50 x i32], [50 x i32]* %7, i64 0, i64 %99
  %101 = load i32, i32* %100, align 4
  %102 = load i32, i32* %8, align 4
  %103 = sext i32 %102 to i64
  %104 = getelementptr inbounds [50 x i32], [50 x i32]* %7, i64 0, i64 %103
  store i32 %101, i32* %104, align 4
  br label %105

105:                                              ; preds = %96, %90
  store i32 0, i32* %4, align 4
  br label %106

106:                                              ; preds = %125, %105
  %107 = load i32, i32* %4, align 4
  %108 = load i32, i32* %8, align 4
  %109 = icmp sle i32 %107, %108
  br i1 %109, label %110, label %128

110:                                              ; preds = %106
  %111 = load i32, i32* %4, align 4
  %112 = sext i32 %111 to i64
  %113 = getelementptr inbounds [50 x i32], [50 x i32]* %2, i64 0, i64 %112
  %114 = load i32, i32* %113, align 4
  %115 = getelementptr inbounds [50 x i32], [50 x i32]* %7, i64 0, i64 0
  %116 = load i32, i32* %115, align 16
  %117 = icmp eq i32 %114, %116
  br i1 %117, label %118, label %124

118:                                              ; preds = %110
  %119 = load i32, i32* %4, align 4
  %120 = sext i32 %119 to i64
  %121 = getelementptr inbounds [50 x [50 x i8]], [50 x [50 x i8]]* %1, i64 0, i64 %120
  %122 = getelementptr inbounds [50 x i8], [50 x i8]* %121, i64 0, i64 0
  %123 = call i32 (i8*, ...) @printf(i8* getelementptr inbounds ([4 x i8], [4 x i8]* @.str.1, i64 0, i64 0), i8* %122)
  br label %128

124:                                              ; preds = %110
  br label %125

125:                                              ; preds = %124
  %126 = load i32, i32* %4, align 4
  %127 = add nsw i32 %126, 1
  store i32 %127, i32* %4, align 4
  br label %106

128:                                              ; preds = %118, %106
  store i32 0, i32* %4, align 4
  br label %129

129:                                              ; preds = %150, %128
  %130 = load i32, i32* %4, align 4
  %131 = load i32, i32* %8, align 4
  %132 = icmp sle i32 %130, %131
  br i1 %132, label %133, label %153

133:                                              ; preds = %129
  %134 = load i32, i32* %4, align 4
  %135 = sext i32 %134 to i64
  %136 = getelementptr inbounds [50 x i32], [50 x i32]* %2, i64 0, i64 %135
  %137 = load i32, i32* %136, align 4
  %138 = load i32, i32* %8, align 4
  %139 = sext i32 %138 to i64
  %140 = getelementptr inbounds [50 x i32], [50 x i32]* %7, i64 0, i64 %139
  %141 = load i32, i32* %140, align 4
  %142 = icmp eq i32 %137, %141
  br i1 %142, label %143, label %149

143:                                              ; preds = %133
  %144 = load i32, i32* %4, align 4
  %145 = sext i32 %144 to i64
  %146 = getelementptr inbounds [50 x [50 x i8]], [50 x [50 x i8]]* %1, i64 0, i64 %145
  %147 = getelementptr inbounds [50 x i8], [50 x i8]* %146, i64 0, i64 0
  %148 = call i32 (i8*, ...) @printf(i8* getelementptr inbounds ([3 x i8], [3 x i8]* @.str, i64 0, i64 0), i8* %147)
  br label %153

149:                                              ; preds = %133
  br label %150

150:                                              ; preds = %149
  %151 = load i32, i32* %4, align 4
  %152 = add nsw i32 %151, 1
  store i32 %152, i32* %4, align 4
  br label %129

153:                                              ; preds = %143, %129
  ret void
}

declare dso_local i32 @__isoc99_scanf(i8*, ...) #1

; Function Attrs: nounwind readonly
declare dso_local i64 @strlen(i8*) #2

declare dso_local i32 @printf(i8*, ...) #1


!llvm.module.flags = !{!0}
!llvm.ident = !{!1}

!0 = !{i32 1, !"wchar_size", i32 4}
!1 = !{!"clang version 10.0.0-4ubuntu1 "}
